; ModuleID = '24/2601.c'
source_filename = "24/2601.c"
target datalayout = "e-m:e-p270:32:32-p271:32:32-p272:64:64-i64:64-f80:128-n8:16:32:64-S128"
target triple = "x86_64-pc-linux-gnu"

@.str = private unnamed_addr constant [3 x i8] c"%d\00", align 1
@.str.1 = private unnamed_addr constant [3 x i8] c"%s\00", align 1
@.str.2 = private unnamed_addr constant [4 x i8] c"%s\0A\00", align 1

; Function Attrs: noinline nounwind uwtable
define dso_local i32 @main() #0 {
  %1 = alloca i32, align 4
  %2 = alloca i32, align 4
  %3 = alloca i32, align 4
  %4 = alloca i32, align 4
  %5 = alloca i32, align 4
  %6 = alloca i32, align 4
  %7 = alloca i32, align 4
  %8 = alloca i32, align 4
  %9 = alloca i32, align 4
  %10 = alloca [203 x [1050 x i8]], align 16
  store i32 0, i32* %1, align 4
  store i32 0, i32* %6, align 4
  store i32 100, i32* %7, align 4
  %11 = call i32 (i8*, ...) @__isoc99_scanf(i8* getelementptr inbounds ([3 x i8], [3 x i8]* @.str, i64 0, i64 0), i32* %2)
  store i32 0, i32* %3, align 4
  br label %12

12:                                               ; preds = %61, %0
  %13 = load i32, i32* %3, align 4
  %14 = load i32, i32* %2, align 4
  %15 = icmp slt i32 %13, %14
  br i1 %15, label %16, label %64

16:                                               ; preds = %12
  %17 = load i32, i32* %3, align 4
  %18 = sext i32 %17 to i64
  %19 = getelementptr inbounds [203 x [1050 x i8]], [203 x [1050 x i8]]* %10, i64 0, i64 %18
  %20 = getelementptr inbounds [1050 x i8], [1050 x i8]* %19, i64 0, i64 0
  %21 = call i32 (i8*, ...) @__isoc99_scanf(i8* getelementptr inbounds ([3 x i8], [3 x i8]* @.str.1, i64 0, i64 0), i8* %20)
  %22 = load i32, i32* %3, align 4
  %23 = sext i32 %22 to i64
  %24 = getelementptr inbounds [203 x [1050 x i8]], [203 x [1050 x i8]]* %10, i64 0, i64 %23
  %25 = getelementptr inbounds [1050 x i8], [1050 x i8]* %24, i64 0, i64 0
  %26 = call i64 @strlen(i8* %25) #3
  %27 = load i32, i32* %3, align 4
  %28 = sext i32 %27 to i64
  %29 = getelementptr inbounds [203 x [1050 x i8]], [203 x [1050 x i8]]* %10, i64 0, i64 %28
  %30 = getelementptr inbounds [1050 x i8], [1050 x i8]* %29, i64 0, i64 0
  %31 = call i64 @strlen(i8* %30) #3
  %32 = load i32, i32* %6, align 4
  %33 = sext i32 %32 to i64
  %34 = icmp ugt i64 %31, %33
  br i1 %34, label %35, label %43

35:                                               ; preds = %16
  %36 = load i32, i32* %3, align 4
  %37 = sext i32 %36 to i64
  %38 = getelementptr inbounds [203 x [1050 x i8]], [203 x [1050 x i8]]* %10, i64 0, i64 %37
  %39 = getelementptr inbounds [1050 x i8], [1050 x i8]* %38, i64 0, i64 0
  %40 = call i64 @strlen(i8* %39) #3
  %41 = trunc i64 %40 to i32
  store i32 %41, i32* %6, align 4
  %42 = load i32, i32* %3, align 4
  store i32 %42, i32* %8, align 4
  br label %43

43:                                               ; preds = %35, %16
  %44 = load i32, i32* %3, align 4
  %45 = sext i32 %44 to i64
  %46 = getelementptr inbounds [203 x [1050 x i8]], [203 x [1050 x i8]]* %10, i64 0, i64 %45
  %47 = getelementptr inbounds [1050 x i8], [1050 x i8]* %46, i64 0, i64 0
  %48 = call i64 @strlen(i8* %47) #3
  %49 = load i32, i32* %7, align 4
  %50 = sext i32 %49 to i64
  %51 = icmp ult i64 %48, %50
  br i1 %51, label %52, label %60

52:                                               ; preds = %43
  %53 = load i32, i32* %3, align 4
  %54 = sext i32 %53 to i64
  %55 = getelementptr inbounds [203 x [1050 x i8]], [203 x [1050 x i8]]* %10, i64 0, i64 %54
  %56 = getelementptr inbounds [1050 x i8], [1050 x i8]* %55, i64 0, i64 0
  %57 = call i64 @strlen(i8* %56) #3
  %58 = trunc i64 %57 to i32
  store i32 %58, i32* %7, align 4
  %59 = load i32, i32* %3, align 4
  store i32 %59, i32* %9, align 4
  br label %60

60:                                               ; preds = %52, %43
  br label %61

61:                                               ; preds = %60
  %62 = load i32, i32* %3, align 4
  %63 = add nsw i32 %62, 1
  store i32 %63, i32* %3, align 4
  br label %12

64:                                               ; preds = %12
  %65 = load i32, i32* %8, align 4
  %66 = sext i32 %65 to i64
  %67 = getelementptr inbounds [203 x [1050 x i8]], [203 x [1050 x i8]]* %10, i64 0, i64 %66
  %68 = getelementptr inbounds [1050 x i8], [1050 x i8]* %67, i64 0, i64 0
  %69 = call i32 (i8*, ...) @printf(i8* getelementptr inbounds ([4 x i8], [4 x i8]* @.str.2, i64 0, i64 0), i8* %68)
  %70 = load i32, i32* %9, align 4
  %71 = sext i32 %70 to i64
  %72 = getelementptr inbounds [203 x [1050 x i8]], [203 x [1050 x i8]]* %10, i64 0, i64 %71
  %73 = getelementptr inbounds [1050 x i8], [1050 x i8]* %72, i64 0, i64 0
  %74 = call i32 (i8*, ...) @printf(i8* getelementptr inbounds ([4 x i8], [4 x i8]* @.str.2, i64 0, i64 0), i8* %73)
  ret i32 0
}

declare dso_local i32 @__isoc99_scanf(i8*, ...) #1

; Function Attrs: nounwind readonly
declare dso_local i64 @strlen(i8*) #2

declare dso_local i32 @printf(i8*, ...) #1


!llvm.module.flags = !{!0}
!llvm.ident = !{!1}

!0 = !{i32 1, !"wchar_size", i32 4}
!1 = !{!"clang version 10.0.0-4ubuntu1 "}
