; ModuleID = 'source-C-CXX/23/2601.c'
source_filename = "source-C-CXX/23/2601.c"
target datalayout = "e-m:e-p270:32:32-p271:32:32-p272:64:64-i64:64-f80:128-n8:16:32:64-S128"
target triple = "x86_64-pc-linux-gnu"

@.str = private unnamed_addr constant [3 x i8] c"%d\00", align 1
@.str.1 = private unnamed_addr constant [3 x i8] c"%s\00", align 1

; Function Attrs: nofree nounwind sspstrong uwtable
define dso_local i32 @main() local_unnamed_addr #0 {
  %1 = alloca i32, align 4
  %2 = alloca [203 x [1050 x i8]], align 16
  %3 = bitcast i32* %1 to i8*
  call void @llvm.lifetime.start.p0i8(i64 4, i8* nonnull %3) #5
  %4 = getelementptr inbounds [203 x [1050 x i8]], [203 x [1050 x i8]]* %2, i64 0, i64 0, i64 0
  call void @llvm.lifetime.start.p0i8(i64 213150, i8* nonnull %4) #5
  %5 = call i32 (i8*, ...) @__isoc99_scanf(i8* getelementptr inbounds ([3 x i8], [3 x i8]* @.str, i64 0, i64 0), i32* nonnull %1)
  %6 = load i32, i32* %1, align 4, !tbaa !5
  %7 = icmp sgt i32 %6, 0
  br i1 %7, label %8, label %34

8:                                                ; preds = %0, %8
  %9 = phi i64 [ %27, %8 ], [ 0, %0 ]
  %10 = phi i32 [ %26, %8 ], [ undef, %0 ]
  %11 = phi i32 [ %22, %8 ], [ undef, %0 ]
  %12 = phi i32 [ %25, %8 ], [ 100, %0 ]
  %13 = phi i32 [ %20, %8 ], [ 0, %0 ]
  %14 = getelementptr inbounds [203 x [1050 x i8]], [203 x [1050 x i8]]* %2, i64 0, i64 %9, i64 0
  %15 = call i32 (i8*, ...) @__isoc99_scanf(i8* getelementptr inbounds ([3 x i8], [3 x i8]* @.str.1, i64 0, i64 0), i8* nonnull %14)
  %16 = call i64 @strlen(i8* noundef nonnull %14) #6
  %17 = sext i32 %13 to i64
  %18 = icmp ugt i64 %16, %17
  %19 = trunc i64 %16 to i32
  %20 = select i1 %18, i32 %19, i32 %13
  %21 = trunc i64 %9 to i32
  %22 = select i1 %18, i32 %21, i32 %11
  %23 = zext i32 %12 to i64
  %24 = icmp ult i64 %16, %23
  %25 = select i1 %24, i32 %19, i32 %12
  %26 = select i1 %24, i32 %21, i32 %10
  %27 = add nuw nsw i64 %9, 1
  %28 = load i32, i32* %1, align 4, !tbaa !5
  %29 = sext i32 %28 to i64
  %30 = icmp slt i64 %27, %29
  br i1 %30, label %8, label %31, !llvm.loop !9

31:                                               ; preds = %8
  %32 = sext i32 %22 to i64
  %33 = sext i32 %26 to i64
  br label %34

34:                                               ; preds = %31, %0
  %35 = phi i64 [ 0, %0 ], [ %32, %31 ]
  %36 = phi i64 [ 0, %0 ], [ %33, %31 ]
  %37 = getelementptr inbounds [203 x [1050 x i8]], [203 x [1050 x i8]]* %2, i64 0, i64 %35, i64 0
  %38 = call i32 @puts(i8* nonnull %37)
  %39 = getelementptr inbounds [203 x [1050 x i8]], [203 x [1050 x i8]]* %2, i64 0, i64 %36, i64 0
  %40 = call i32 @puts(i8* nonnull %39)
  call void @llvm.lifetime.end.p0i8(i64 213150, i8* nonnull %4) #5
  call void @llvm.lifetime.end.p0i8(i64 4, i8* nonnull %3) #5
  ret i32 0
}

; Function Attrs: argmemonly mustprogress nofree nosync nounwind willreturn
declare void @llvm.lifetime.start.p0i8(i64 immarg, i8* nocapture) #1

; Function Attrs: nofree nounwind
declare noundef i32 @__isoc99_scanf(i8* nocapture noundef readonly, ...) local_unnamed_addr #2

; Function Attrs: argmemonly mustprogress nofree nounwind readonly willreturn
declare i64 @strlen(i8* nocapture) local_unnamed_addr #3

; Function Attrs: argmemonly mustprogress nofree nosync nounwind willreturn
declare void @llvm.lifetime.end.p0i8(i64 immarg, i8* nocapture) #1

; Function Attrs: nofree nounwind
declare noundef i32 @puts(i8* nocapture noundef readonly) local_unnamed_addr #4


!llvm.module.flags = !{!0, !1, !2, !3}
!llvm.ident = !{!4}

!0 = !{i32 1, !"wchar_size", i32 4}
!1 = !{i32 7, !"PIC Level", i32 2}
!2 = !{i32 7, !"PIE Level", i32 2}
!3 = !{i32 7, !"uwtable", i32 1}
!4 = !{!"clang version 13.0.0"}
!5 = !{!6, !6, i64 0}
!6 = !{!"int", !7, i64 0}
!7 = !{!"omnipotent char", !8, i64 0}
!8 = !{!"Simple C/C++ TBAA"}
!9 = distinct !{!9, !10}
!10 = !{!"llvm.loop.mustprogress"}
